target datalayout = "e-m:e-p270:32:32-p271:32:32-p272:64:64-i64:64-i128:128-f80:128-n8:16:32:64-S128"
target triple = "x86_64-pc-linux-gnu"

%struct.FuncState = type { ptr, ptr, ptr, ptr, ptr, ptr, i32, i32, i32, i32, i32, i32, i16, i8, [60 x %struct.upvaldesc], [200 x i16] }
%struct.upvaldesc = type { i8, i8 }
%struct.LexState = type { i32, i32, i32, %struct.Token, %struct.Token, ptr, ptr, ptr, ptr, ptr, i8 }
%struct.Token = type { i32, %union.SemInfo }
%union.SemInfo = type { double }

; Function Attrs: nounwind uwtable
define hidden i32 @luaK_codeABC(ptr noundef %0, i32 noundef %1, i32 noundef %2, i32 noundef %3, i32 noundef %4) #0 {
  %6 = alloca ptr, align 8
  %7 = alloca i32, align 4
  %8 = alloca i32, align 4
  %9 = alloca i32, align 4
  %10 = alloca i32, align 4
  store ptr %0, ptr %6, align 8, !tbaa !4
  store i32 %1, ptr %7, align 4, !tbaa !9
  store i32 %2, ptr %8, align 4, !tbaa !9
  store i32 %3, ptr %9, align 4, !tbaa !9
  store i32 %4, ptr %10, align 4, !tbaa !9
  %11 = load ptr, ptr %6, align 8, !tbaa !4
  %12 = load i32, ptr %7, align 4, !tbaa !9
  %13 = shl i32 %12, 0
  %14 = load i32, ptr %8, align 4, !tbaa !9
  %15 = shl i32 %14, 6
  %16 = or i32 %13, %15
  %17 = load i32, ptr %9, align 4, !tbaa !9
  %18 = shl i32 %17, 23
  %19 = or i32 %16, %18
  %20 = load i32, ptr %10, align 4, !tbaa !9
  %21 = shl i32 %20, 14
  %22 = or i32 %19, %21
  %23 = load ptr, ptr %6, align 8, !tbaa !4
  %24 = getelementptr inbounds nuw %struct.FuncState, ptr %23, i32 0, i32 3
  %25 = load ptr, ptr %24, align 8, !tbaa !32
  %26 = getelementptr inbounds nuw %struct.LexState, ptr %25, i32 0, i32 2
  %27 = load i32, ptr %26, align 8, !tbaa !33
  %28 = call i32 @luaK_code(ptr noundef %11, i32 noundef %22, i32 noundef %27)
  ret i32 %28
}

; Function Attrs: nounwind uwtable
define hidden void @luaK_setlist(ptr noundef %0, i32 noundef %1, i32 noundef %2, i32 noundef %3) #0 {
  %5 = alloca ptr, align 8
  %6 = alloca i32, align 4
  %7 = alloca i32, align 4
  %8 = alloca i32, align 4
  %9 = alloca i32, align 4
  %10 = alloca i32, align 4
  store ptr %0, ptr %5, align 8, !tbaa !4
  store i32 %1, ptr %6, align 4, !tbaa !9
  store i32 %2, ptr %7, align 4, !tbaa !9
  store i32 %3, ptr %8, align 4, !tbaa !9
  call void @llvm.lifetime.start.p0(i64 4, ptr %9) #6
  %11 = load i32, ptr %7, align 4, !tbaa !9
  %12 = sub nsw i32 %11, 1
  %13 = sdiv i32 %12, 50
  %14 = add nsw i32 %13, 1
  store i32 %14, ptr %9, align 4, !tbaa !9
  call void @llvm.lifetime.start.p0(i64 4, ptr %10) #6
  %15 = load i32, ptr %8, align 4, !tbaa !9
  %16 = icmp eq i32 %15, -1
  br i1 %16, label %17, label %18

17:                                               ; preds = %4
  br label %20

18:                                               ; preds = %4
  %19 = load i32, ptr %8, align 4, !tbaa !9
  br label %20

20:                                               ; preds = %18, %17
  %21 = phi i32 [ 0, %17 ], [ %19, %18 ]
  store i32 %21, ptr %10, align 4, !tbaa !9
  %22 = load i32, ptr %9, align 4, !tbaa !9
  %23 = icmp sle i32 %22, 511
  br i1 %23, label %24, label %30

24:                                               ; preds = %20
  %25 = load ptr, ptr %5, align 8, !tbaa !4
  %26 = load i32, ptr %6, align 4, !tbaa !9
  %27 = load i32, ptr %10, align 4, !tbaa !9
  %28 = load i32, ptr %9, align 4, !tbaa !9
  %29 = call i32 @luaK_codeABC(ptr noundef %25, i32 noundef 34, i32 noundef %26, i32 noundef %27, i32 noundef %28)
  br label %43

30:                                               ; preds = %20
  %31 = load ptr, ptr %5, align 8, !tbaa !4
  %32 = load i32, ptr %6, align 4, !tbaa !9
  %33 = load i32, ptr %10, align 4, !tbaa !9
  %34 = call i32 @luaK_codeABC(ptr noundef %31, i32 noundef 34, i32 noundef %32, i32 noundef %33, i32 noundef 0)
  %35 = load ptr, ptr %5, align 8, !tbaa !4
  %36 = load i32, ptr %9, align 4, !tbaa !9
  %37 = load ptr, ptr %5, align 8, !tbaa !4
  %38 = getelementptr inbounds nuw %struct.FuncState, ptr %37, i32 0, i32 3
  %39 = load ptr, ptr %38, align 8, !tbaa !32
  %40 = getelementptr inbounds nuw %struct.LexState, ptr %39, i32 0, i32 2
  %41 = load i32, ptr %40, align 8, !tbaa !33
  %42 = call i32 @luaK_code(ptr noundef %35, i32 noundef %36, i32 noundef %41)
  br label %43

43:                                               ; preds = %30, %24
  %44 = load i32, ptr %6, align 4, !tbaa !9
  %45 = add nsw i32 %44, 1
  %46 = load ptr, ptr %5, align 8, !tbaa !4
  %47 = getelementptr inbounds nuw %struct.FuncState, ptr %46, i32 0, i32 9
  store i32 %45, ptr %47, align 4, !tbaa !42
  call void @llvm.lifetime.end.p0(i64 4, ptr %10) #6
  call void @llvm.lifetime.end.p0(i64 4, ptr %9) #6
  ret void
}