; Function Attrs: nounwind uwtable
define hidden void @luaK_setlist(ptr noundef captures(none) %0, i32 noundef %1, i32 noundef %2, i32 noundef %3) local_unnamed_addr #0 {
  %5 = add nsw i32 %2, -1
  %6 = sdiv i32 %5, 50
  %7 = add nsw i32 %6, 1
  %8 = icmp eq i32 %3, -1
  %9 = icmp slt i32 %2, 25551
  %10 = shl i32 %1, 6
  %11 = shl i32 %3, 23
  %12 = select i1 %8, i32 0, i32 %11
  br i1 %9, label %13, label %19

13:                                               ; preds = %4
  %14 = shl i32 %7, 14
  %15 = or i32 %12, %14
  %16 = or i32 %15, %10
  %17 = or disjoint i32 %16, 34
  %18 = getelementptr inbounds nuw i8, ptr %0, i64 24
  br label %27

19:                                               ; preds = %4
  %20 = or i32 %10, %12
  %21 = or disjoint i32 %20, 34
  %22 = getelementptr inbounds nuw i8, ptr %0, i64 24
  %23 = load ptr, ptr %22, align 8, !tbaa !30
  %24 = getelementptr inbounds nuw i8, ptr %23, i64 8
  %25 = load i32, ptr %24, align 8, !tbaa !31
  %26 = tail call fastcc i32 @luaK_code(ptr noundef %0, i32 noundef %21, i32 noundef %25)
  br label %27

27:                                               ; preds = %19, %13
  %.sink17.in = phi ptr [ %22, %19 ], [ %18, %13 ]
  %.sink = phi i32 [ %7, %19 ], [ %17, %13 ]
  %.sink17 = load ptr, ptr %.sink17.in, align 8, !tbaa !30
  %28 = getelementptr inbounds nuw i8, ptr %.sink17, i64 8
  %29 = load i32, ptr %28, align 8, !tbaa !31
  %30 = tail call fastcc i32 @luaK_code(ptr noundef %0, i32 noundef %.sink, i32 noundef %29)
  %31 = add nsw i32 %1, 1
  %32 = getelementptr inbounds nuw i8, ptr %0, i64 60
  store i32 %31, ptr %32, align 4, !tbaa !41
  ret void
}